target datalayout = "e-m:e-p270:32:32-p271:32:32-p272:64:64-i64:64-i128:128-f80:128-n8:16:32:64-S128"
target triple = "x86_64-pc-linux-gnu"

@plugin_type = dso_local constant [31 x i8] c"acct_gather_interconnect/sysfs\00", align 16
@.str.21 = private unnamed_addr constant [2 x i8] c"r\00", align 1
@.str.22 = private unnamed_addr constant [32 x i8] c"%s: %s: Failed to open `%s`: %m\00", align 1
@__func__._load = private unnamed_addr constant [6 x i8] c"_load\00", align 1
@.str.23 = private unnamed_addr constant [4 x i8] c"%lu\00", align 1
@.str.24 = private unnamed_addr constant [39 x i8] c"%s: %s: Failed to read value from `%s`\00", align 1
@.str.25 = private unnamed_addr constant [38 x i8] c"%s: %s: Value from %s: %ld, delta %ld\00", align 1

; Function Attrs: nounwind uwtable
define internal i64 @_load(ptr noundef %0, i64 noundef %1) #0 {
  %3 = alloca i64, align 8
  %4 = alloca ptr, align 8
  %5 = alloca i64, align 8
  %6 = alloca ptr, align 8
  %7 = alloca i64, align 8
  %8 = alloca i64, align 8
  %9 = alloca i32, align 4
  store ptr %0, ptr %4, align 8
  store i64 %1, ptr %5, align 8
  call void @llvm.lifetime.start.p0(i64 8, ptr %6) #6
  call void @llvm.lifetime.start.p0(i64 8, ptr %7) #6
  store i64 0, ptr %7, align 8
  call void @llvm.lifetime.start.p0(i64 8, ptr %8) #6
  store i64 0, ptr %8, align 8
  %10 = load ptr, ptr %4, align 8
  %11 = call noalias ptr @fopen(ptr noundef %10, ptr noundef @.str.21)
  store ptr %11, ptr %6, align 8
  %12 = icmp ne ptr %11, null
  br i1 %12, label %25, label %13

13:                                               ; preds = %2
  br label %14

14:                                               ; preds = %13
  br label %15

15:                                               ; preds = %14
  %16 = call i32 @slurm_get_log_level()
  %17 = icmp sge i32 %16, 5
  br i1 %17, label %18, label %20

18:                                               ; preds = %15
  %19 = load ptr, ptr %4, align 8
  call void (i32, ptr, ...) @slurm_log_var(i32 noundef 5, ptr noundef @.str.22, ptr noundef @plugin_type, ptr noundef @__func__._load, ptr noundef %19)
  br label %20

20:                                               ; preds = %18, %15
  br label %21

21:                                               ; preds = %20
  br label %22

22:                                               ; preds = %21
  br label %23

23:                                               ; preds = %22
  br label %24

24:                                               ; preds = %23
  store i64 0, ptr %3, align 8
  store i32 1, ptr %9, align 4
  br label %68

25:                                               ; preds = %2
  %26 = load ptr, ptr %6, align 8
  %27 = call i32 (ptr, ptr, ...) @__isoc99_fscanf(ptr noundef %26, ptr noundef @.str.23, ptr noundef %7)
  %28 = icmp ne i32 %27, 1
  br i1 %28, label %29, label %43

29:                                               ; preds = %25
  br label %30

30:                                               ; preds = %29
  br label %31

31:                                               ; preds = %30
  %32 = call i32 @slurm_get_log_level()
  %33 = icmp sge i32 %32, 5
  br i1 %33, label %34, label %36

34:                                               ; preds = %31
  %35 = load ptr, ptr %4, align 8
  call void (i32, ptr, ...) @slurm_log_var(i32 noundef 5, ptr noundef @.str.24, ptr noundef @plugin_type, ptr noundef @__func__._load, ptr noundef %35)
  br label %36

36:                                               ; preds = %34, %31
  br label %37

37:                                               ; preds = %36
  br label %38

38:                                               ; preds = %37
  br label %39

39:                                               ; preds = %38
  br label %40

40:                                               ; preds = %39
  %41 = load ptr, ptr %6, align 8
  %42 = call i32 @fclose(ptr noundef %41)
  store i64 0, ptr %3, align 8
  store i32 1, ptr %9, align 4
  br label %68

43:                                               ; preds = %25
  %44 = load ptr, ptr %6, align 8
  %45 = call i32 @fclose(ptr noundef %44)
  %46 = load i64, ptr %5, align 8
  %47 = load i64, ptr %7, align 8
  %48 = icmp ult i64 %46, %47
  br i1 %48, label %49, label %53

49:                                               ; preds = %43
  %50 = load i64, ptr %7, align 8
  %51 = load i64, ptr %5, align 8
  %52 = sub i64 %50, %51
  store i64 %52, ptr %8, align 8
  br label %53

53:                                               ; preds = %49, %43
  br label %54

54:                                               ; preds = %53
  br label %55

55:                                               ; preds = %54
  %56 = call i32 @slurm_get_log_level()
  %57 = icmp sge i32 %56, 7
  br i1 %57, label %58, label %62

58:                                               ; preds = %55
  %59 = load ptr, ptr %4, align 8
  %60 = load i64, ptr %7, align 8
  %61 = load i64, ptr %8, align 8
  call void (i32, ptr, ...) @slurm_log_var(i32 noundef 7, ptr noundef @.str.25, ptr noundef @plugin_type, ptr noundef @__func__._load, ptr noundef %59, i64 noundef %60, i64 noundef %61)
  br label %62

62:                                               ; preds = %58, %55
  br label %63

63:                                               ; preds = %62
  br label %64

64:                                               ; preds = %63
  br label %65

65:                                               ; preds = %64
  br label %66

66:                                               ; preds = %65
  %67 = load i64, ptr %8, align 8
  store i64 %67, ptr %3, align 8
  store i32 1, ptr %9, align 4
  br label %68

68:                                               ; preds = %66, %40, %24
  call void @llvm.lifetime.end.p0(i64 8, ptr %8) #6
  call void @llvm.lifetime.end.p0(i64 8, ptr %7) #6
  call void @llvm.lifetime.end.p0(i64 8, ptr %6) #6
  %69 = load i64, ptr %3, align 8
  ret i64 %69
}