; Function Attrs: nounwind uwtable
define internal fastcc i64 @_load(ptr noundef %0, i64 noundef %1) unnamed_addr #0 {
  %3 = alloca i64, align 8
  call void @llvm.lifetime.start.p0(i64 8, ptr nonnull %3) #9
  store i64 0, ptr %3, align 8
  %4 = tail call noalias ptr @fopen(ptr noundef %0, ptr noundef nonnull @.str.21)
  %.not = icmp eq ptr %4, null
  br i1 %.not, label %5, label %9

5:                                                ; preds = %2
  %6 = tail call i32 @slurm_get_log_level() #9
  %7 = icmp sgt i32 %6, 4
  br i1 %7, label %8, label %24

8:                                                ; preds = %5
  tail call void (i32, ptr, ...) @slurm_log_var(i32 noundef 5, ptr noundef nonnull @.str.22, ptr noundef nonnull @plugin_type, ptr noundef nonnull @__func__._load, ptr noundef %0) #9
  br label %24

9:                                                ; preds = %2
  %10 = call i32 (ptr, ptr, ...) @__isoc99_fscanf(ptr noundef nonnull %4, ptr noundef nonnull @.str.23, ptr noundef nonnull %3) #9
  %.not15 = icmp eq i32 %10, 1
  br i1 %.not15, label %17, label %11

11:                                               ; preds = %9
  %12 = call i32 @slurm_get_log_level() #9
  %13 = icmp sgt i32 %12, 4
  br i1 %13, label %14, label %15

14:                                               ; preds = %11
  call void (i32, ptr, ...) @slurm_log_var(i32 noundef 5, ptr noundef nonnull @.str.24, ptr noundef nonnull @plugin_type, ptr noundef nonnull @__func__._load, ptr noundef %0) #9
  br label %15

15:                                               ; preds = %14, %11
  %16 = call i32 @fclose(ptr noundef nonnull %4)
  br label %24

17:                                               ; preds = %9
  %18 = call i32 @fclose(ptr noundef nonnull %4)
  %19 = load i64, ptr %3, align 8
  %spec.select = call i64 @llvm.usub.sat.i64(i64 %19, i64 %1)
  %20 = call i32 @slurm_get_log_level() #9
  %21 = icmp sgt i32 %20, 6
  br i1 %21, label %22, label %24

22:                                               ; preds = %17
  %23 = load i64, ptr %3, align 8
  call void (i32, ptr, ...) @slurm_log_var(i32 noundef 7, ptr noundef nonnull @.str.25, ptr noundef nonnull @plugin_type, ptr noundef nonnull @__func__._load, ptr noundef %0, i64 noundef %23, i64 noundef %spec.select) #9
  br label %24

24:                                               ; preds = %17, %22, %5, %8, %15
  %.011 = phi i64 [ 0, %15 ], [ 0, %8 ], [ 0, %5 ], [ %spec.select, %22 ], [ %spec.select, %17 ]
  call void @llvm.lifetime.end.p0(i64 8, ptr nonnull %3) #9
  ret i64 %.011
}